target datalayout = "e-m:e-p270:32:32-p271:32:32-p272:64:64-i64:64-i128:128-f80:128-n8:16:32:64-S128"
target triple = "x86_64-pc-linux-gnu"

; Function Attrs: mustprogress nounwind uwtable
define noundef i32 @_ZN6LibRaw16valid_for_dngsdkEv(ptr noundef nonnull align 8 dereferenceable(767680) %0) #0 align 2 {
  %2 = alloca ptr, align 8
  store ptr %0, ptr %2, align 8, !tbaa !6
  ret i32 0
}

; Function Attrs: mustprogress nounwind uwtable
define noundef i32 @_ZN6LibRaw10try_dngsdkEv(ptr noundef nonnull align 8 dereferenceable(767680) %0) #0 align 2 {
  %2 = alloca ptr, align 8
  store ptr %0, ptr %2, align 8, !tbaa !6
  ret i32 -1
}

; Function Attrs: mustprogress nounwind uwtable
define void @_ZN6LibRaw12set_dng_hostEPv(ptr noundef nonnull align 8 dereferenceable(767680) %0, ptr noundef %1) #0 align 2 {
  %3 = alloca ptr, align 8
  %4 = alloca ptr, align 8
  store ptr %0, ptr %3, align 8, !tbaa !6
  store ptr %1, ptr %4, align 8, !tbaa !11
  ret void
}


!llvm.module.flags = !{!0, !1, !2, !3, !4, !5}

!0 = !{i32 7, !"Dwarf Version", i32 5}
!1 = !{i32 2, !"Debug Info Version", i32 3}
!2 = !{i32 1, !"wchar_size", i32 4}
!3 = !{i32 8, !"PIC Level", i32 2}
!4 = !{i32 7, !"uwtable", i32 2}
!5 = !{i32 7, !"debug-info-assignment-tracking", i1 true}
!6 = !{!7, !7, i64 0}
!7 = !{!"p1 _ZTS6LibRaw", !8, i64 0}
!8 = !{!"any pointer", !9, i64 0}
!9 = !{!"omnipotent char", !10, i64 0}
!10 = !{!"Simple C++ TBAA"}
!11 = !{!8, !8, i64 0}
