; ModuleID = 'bench/darktable/original/dngsdk_glue.ll'
source_filename = "bench/darktable/original/dngsdk_glue.ll"
target datalayout = "e-m:e-p270:32:32-p271:32:32-p272:64:64-i64:64-i128:128-f80:128-n8:16:32:64-S128"
target triple = "x86_64-pc-linux-gnu"

; Function Attrs: mustprogress nofree norecurse nosync nounwind willreturn memory(none) uwtable
define noundef i32 @_ZN6LibRaw16valid_for_dngsdkEv(ptr noundef nonnull readnone align 8 captures(none) dereferenceable(767680) %0) local_unnamed_addr #0 align 2 {
  ret i32 0
}

; Function Attrs: mustprogress nofree norecurse nosync nounwind willreturn memory(none) uwtable
define noundef i32 @_ZN6LibRaw10try_dngsdkEv(ptr noundef nonnull readnone align 8 captures(none) dereferenceable(767680) %0) local_unnamed_addr #0 align 2 {
  ret i32 -1
}

; Function Attrs: mustprogress nofree norecurse nosync nounwind willreturn memory(none) uwtable
define void @_ZN6LibRaw12set_dng_hostEPv(ptr noundef nonnull readnone align 8 captures(none) dereferenceable(767680) %0, ptr noundef readnone captures(none) %1) local_unnamed_addr #0 align 2 {
  ret void
}


!llvm.module.flags = !{!0, !1, !2, !3, !4, !5}

!0 = !{i32 7, !"Dwarf Version", i32 5}
!1 = !{i32 2, !"Debug Info Version", i32 3}
!2 = !{i32 1, !"wchar_size", i32 4}
!3 = !{i32 8, !"PIC Level", i32 2}
!4 = !{i32 7, !"uwtable", i32 2}
!5 = !{i32 7, !"debug-info-assignment-tracking", i1 true}
